target datalayout = "e-m:e-p270:32:32-p271:32:32-p272:64:64-i64:64-i128:128-f80:128-n8:16:32:64-S128"
target triple = "x86_64-pc-linux-gnu"

%struct.xorkey_st = type { [32 x i8], [32 x i8], i32, i32, ptr, %struct.CRYPTO_REF_COUNT }
%struct.CRYPTO_REF_COUNT = type { i32 }

@.str.2 = private unnamed_addr constant [31 x i8] c"../openssl/test/tls-provider.c\00", align 1
@__func__.prepare_xorx_params = private unnamed_addr constant [20 x i8] c"prepare_xorx_params\00", align 1

; Function Attrs: nounwind uwtable
define internal i32 @prepare_xorx_params(ptr noundef %0, i32 noundef %1, i32 noundef %2, ptr noundef %3, ptr noundef %4) #0 {
  %6 = alloca i32, align 4
  %7 = alloca ptr, align 8
  %8 = alloca i32, align 4
  %9 = alloca i32, align 4
  %10 = alloca ptr, align 8
  %11 = alloca ptr, align 8
  %12 = alloca ptr, align 8
  %13 = alloca ptr, align 8
  %14 = alloca i32, align 4
  store ptr %0, ptr %7, align 8, !tbaa !13
  store i32 %1, ptr %8, align 4, !tbaa !27
  store i32 %2, ptr %9, align 4, !tbaa !27
  store ptr %3, ptr %10, align 8, !tbaa !13
  store ptr %4, ptr %11, align 8, !tbaa !33
  call void @llvm.lifetime.start.p0(i64 8, ptr %12) #8
  store ptr null, ptr %12, align 8, !tbaa !91
  call void @llvm.lifetime.start.p0(i64 8, ptr %13) #8
  %15 = load ptr, ptr %7, align 8, !tbaa !13
  store ptr %15, ptr %13, align 8, !tbaa !41
  %16 = load ptr, ptr %13, align 8, !tbaa !41
  %17 = getelementptr inbounds nuw %struct.xorkey_st, ptr %16, i32 0, i32 4
  %18 = load ptr, ptr %17, align 8, !tbaa !59
  %19 = icmp ne ptr %18, null
  br i1 %19, label %20, label %28

20:                                               ; preds = %5
  %21 = load ptr, ptr %13, align 8, !tbaa !41
  %22 = getelementptr inbounds nuw %struct.xorkey_st, ptr %21, i32 0, i32 4
  %23 = load ptr, ptr %22, align 8, !tbaa !59
  %24 = call i32 @OBJ_sn2nid(ptr noundef %23)
  %25 = load i32, ptr %8, align 4, !tbaa !27
  %26 = icmp ne i32 %24, %25
  br i1 %26, label %27, label %28

27:                                               ; preds = %20
  call void @ERR_new()
  call void @ERR_set_debug(ptr noundef @.str.2, i32 noundef 1637, ptr noundef @__func__.prepare_xorx_params)
  call void (i32, i32, ptr, ...) @ERR_set_error(i32 noundef 128, i32 noundef 3, ptr noundef null)
  store i32 0, ptr %6, align 4
  store i32 1, ptr %14, align 4
  br label %47

28:                                               ; preds = %20, %5
  %29 = load i32, ptr %8, align 4, !tbaa !27
  %30 = icmp eq i32 %29, 0
  br i1 %30, label %31, label %32

31:                                               ; preds = %28
  call void @ERR_new()
  call void @ERR_set_debug(ptr noundef @.str.2, i32 noundef 1642, ptr noundef @__func__.prepare_xorx_params)
  call void (i32, i32, ptr, ...) @ERR_set_error(i32 noundef 128, i32 noundef 5, ptr noundef null)
  store i32 0, ptr %6, align 4
  store i32 1, ptr %14, align 4
  br label %47

32:                                               ; preds = %28
  %33 = load i32, ptr %8, align 4, !tbaa !27
  %34 = call ptr @OBJ_nid2obj(i32 noundef %33)
  store ptr %34, ptr %12, align 8, !tbaa !91
  %35 = load ptr, ptr %12, align 8, !tbaa !91
  %36 = icmp eq ptr %35, null
  br i1 %36, label %41, label %37

37:                                               ; preds = %32
  %38 = load ptr, ptr %12, align 8, !tbaa !91
  %39 = call i64 @OBJ_length(ptr noundef %38)
  %40 = icmp eq i64 %39, 0
  br i1 %40, label %41, label %43

41:                                               ; preds = %37, %32
  call void @ERR_new()
  call void @ERR_set_debug(ptr noundef @.str.2, i32 noundef 1650, ptr noundef @__func__.prepare_xorx_params)
  call void (i32, i32, ptr, ...) @ERR_set_error(i32 noundef 128, i32 noundef 5, ptr noundef null)
  %42 = load ptr, ptr %12, align 8, !tbaa !91
  call void @ASN1_OBJECT_free(ptr noundef %42)
  store i32 0, ptr %6, align 4
  store i32 1, ptr %14, align 4
  br label %47

43:                                               ; preds = %37
  %44 = load ptr, ptr %12, align 8, !tbaa !91
  %45 = load ptr, ptr %10, align 8, !tbaa !13
  store ptr %44, ptr %45, align 8, !tbaa !13
  %46 = load ptr, ptr %11, align 8, !tbaa !33
  store i32 6, ptr %46, align 4, !tbaa !27
  store i32 1, ptr %6, align 4
  store i32 1, ptr %14, align 4
  br label %47

47:                                               ; preds = %43, %41, %31, %27
  call void @llvm.lifetime.end.p0(i64 8, ptr %13) #8
  call void @llvm.lifetime.end.p0(i64 8, ptr %12) #8
  %48 = load i32, ptr %6, align 4
  ret i32 %48
}