; Function Attrs: nounwind uwtable
define internal range(i32 0, 2) i32 @prepare_xorx_params(ptr noundef readonly captures(none) %0, i32 noundef %1, i32 %2, ptr noundef writeonly captures(none) %3, ptr noundef writeonly captures(none) %4) #0 {
  %6 = getelementptr inbounds nuw i8, ptr %0, i64 72
  %7 = load ptr, ptr %6, align 8, !tbaa !46
  %.not = icmp eq ptr %7, null
  br i1 %.not, label %11, label %8

8:                                                ; preds = %5
  %9 = tail call i32 @OBJ_sn2nid(ptr noundef nonnull %7) #16
  %.not15 = icmp eq i32 %9, %1
  br i1 %.not15, label %11, label %10

10:                                               ; preds = %8
  tail call void @ERR_new() #16
  tail call void @ERR_set_debug(ptr noundef nonnull @.str.2, i32 noundef 1637, ptr noundef nonnull @__func__.prepare_xorx_params) #16
  tail call void (i32, i32, ptr, ...) @ERR_set_error(i32 noundef 128, i32 noundef 3, ptr noundef null) #16
  br label %22

11:                                               ; preds = %8, %5
  %12 = icmp eq i32 %1, 0
  br i1 %12, label %13, label %14

13:                                               ; preds = %11
  tail call void @ERR_new() #16
  tail call void @ERR_set_debug(ptr noundef nonnull @.str.2, i32 noundef 1642, ptr noundef nonnull @__func__.prepare_xorx_params) #16
  tail call void (i32, i32, ptr, ...) @ERR_set_error(i32 noundef 128, i32 noundef 5, ptr noundef null) #16
  br label %22

14:                                               ; preds = %11
  %15 = tail call ptr @OBJ_nid2obj(i32 noundef %1) #16
  %16 = icmp eq ptr %15, null
  br i1 %16, label %20, label %17

17:                                               ; preds = %14
  %18 = tail call i64 @OBJ_length(ptr noundef nonnull %15) #16
  %19 = icmp eq i64 %18, 0
  br i1 %19, label %20, label %21

20:                                               ; preds = %17, %14
  tail call void @ERR_new() #16
  tail call void @ERR_set_debug(ptr noundef nonnull @.str.2, i32 noundef 1650, ptr noundef nonnull @__func__.prepare_xorx_params) #16
  tail call void (i32, i32, ptr, ...) @ERR_set_error(i32 noundef 128, i32 noundef 5, ptr noundef null) #16
  tail call void @ASN1_OBJECT_free(ptr noundef %15) #16
  br label %22

21:                                               ; preds = %17
  store ptr %15, ptr %3, align 8, !tbaa !10
  store i32 6, ptr %4, align 4, !tbaa !11
  br label %22

22:                                               ; preds = %21, %20, %13, %10
  %.0 = phi i32 [ 0, %10 ], [ 0, %13 ], [ 0, %20 ], [ 1, %21 ]
  ret i32 %.0
}